; ModuleID = '20/1012.c'
source_filename = "20/1012.c"
target datalayout = "e-m:e-p270:32:32-p271:32:32-p272:64:64-i64:64-f80:128-n8:16:32:64-S128"
target triple = "x86_64-pc-linux-gnu"

@.str = private unnamed_addr constant [5 x i8] c"%s%s\00", align 1
@.str.1 = private unnamed_addr constant [3 x i8] c"%c\00", align 1
@.str.2 = private unnamed_addr constant [4 x i8] c"%c\0A\00", align 1

; Function Attrs: noinline nounwind uwtable
define dso_local i32 @main() #0 {
  %1 = alloca i32, align 4
  %2 = alloca i32, align 4
  %3 = alloca i32, align 4
  %4 = alloca i32, align 4
  %5 = alloca i32, align 4
  %6 = alloca i32, align 4
  %7 = alloca i32, align 4
  %8 = alloca [20 x i8], align 16
  %9 = alloca [5 x i8], align 1
  %10 = alloca [20 x i8], align 16
  store i32 0, i32* %1, align 4
  br label %11

11:                                               ; preds = %131, %0
  %12 = getelementptr inbounds [20 x i8], [20 x i8]* %8, i64 0, i64 0
  %13 = getelementptr inbounds [5 x i8], [5 x i8]* %9, i64 0, i64 0
  %14 = call i32 (i8*, ...) @__isoc99_scanf(i8* getelementptr inbounds ([5 x i8], [5 x i8]* @.str, i64 0, i64 0), i8* %12, i8* %13)
  %15 = icmp ne i32 %14, -1
  br i1 %15, label %16, label %141

16:                                               ; preds = %11
  %17 = getelementptr inbounds [20 x i8], [20 x i8]* %8, i64 0, i64 0
  %18 = call i64 @strlen(i8* %17) #3
  %19 = trunc i64 %18 to i32
  store i32 %19, i32* %2, align 4
  %20 = getelementptr inbounds [5 x i8], [5 x i8]* %9, i64 0, i64 0
  %21 = call i64 @strlen(i8* %20) #3
  %22 = trunc i64 %21 to i32
  store i32 %22, i32* %3, align 4
  store i32 0, i32* %7, align 4
  store i32 0, i32* %4, align 4
  br label %23

23:                                               ; preds = %43, %16
  %24 = load i32, i32* %4, align 4
  %25 = load i32, i32* %2, align 4
  %26 = icmp slt i32 %24, %25
  br i1 %26, label %27, label %46

27:                                               ; preds = %23
  %28 = load i32, i32* %7, align 4
  %29 = load i32, i32* %4, align 4
  %30 = sext i32 %29 to i64
  %31 = getelementptr inbounds [20 x i8], [20 x i8]* %8, i64 0, i64 %30
  %32 = load i8, i8* %31, align 1
  %33 = sext i8 %32 to i32
  %34 = icmp slt i32 %28, %33
  br i1 %34, label %35, label %42

35:                                               ; preds = %27
  %36 = load i32, i32* %4, align 4
  %37 = sext i32 %36 to i64
  %38 = getelementptr inbounds [20 x i8], [20 x i8]* %8, i64 0, i64 %37
  %39 = load i8, i8* %38, align 1
  %40 = sext i8 %39 to i32
  store i32 %40, i32* %7, align 4
  %41 = load i32, i32* %4, align 4
  store i32 %41, i32* %6, align 4
  br label %42

42:                                               ; preds = %35, %27
  br label %43

43:                                               ; preds = %42
  %44 = load i32, i32* %4, align 4
  %45 = add nsw i32 %44, 1
  store i32 %45, i32* %4, align 4
  br label %23

46:                                               ; preds = %23
  store i32 0, i32* %5, align 4
  %47 = load i32, i32* %6, align 4
  %48 = add nsw i32 %47, 1
  store i32 %48, i32* %4, align 4
  br label %49

49:                                               ; preds = %63, %46
  %50 = load i32, i32* %4, align 4
  %51 = load i32, i32* %2, align 4
  %52 = icmp slt i32 %50, %51
  br i1 %52, label %53, label %66

53:                                               ; preds = %49
  %54 = load i32, i32* %4, align 4
  %55 = sext i32 %54 to i64
  %56 = getelementptr inbounds [20 x i8], [20 x i8]* %8, i64 0, i64 %55
  %57 = load i8, i8* %56, align 1
  %58 = load i32, i32* %5, align 4
  %59 = sext i32 %58 to i64
  %60 = getelementptr inbounds [20 x i8], [20 x i8]* %10, i64 0, i64 %59
  store i8 %57, i8* %60, align 1
  %61 = load i32, i32* %5, align 4
  %62 = add nsw i32 %61, 1
  store i32 %62, i32* %5, align 4
  br label %63

63:                                               ; preds = %53
  %64 = load i32, i32* %4, align 4
  %65 = add nsw i32 %64, 1
  store i32 %65, i32* %4, align 4
  br label %49

66:                                               ; preds = %49
  store i32 0, i32* %5, align 4
  %67 = load i32, i32* %6, align 4
  %68 = add nsw i32 %67, 1
  store i32 %68, i32* %4, align 4
  br label %69

69:                                               ; preds = %86, %66
  %70 = load i32, i32* %4, align 4
  %71 = load i32, i32* %6, align 4
  %72 = load i32, i32* %3, align 4
  %73 = add nsw i32 %71, %72
  %74 = add nsw i32 %73, 1
  %75 = icmp slt i32 %70, %74
  br i1 %75, label %76, label %89

76:                                               ; preds = %69
  %77 = load i32, i32* %5, align 4
  %78 = sext i32 %77 to i64
  %79 = getelementptr inbounds [5 x i8], [5 x i8]* %9, i64 0, i64 %78
  %80 = load i8, i8* %79, align 1
  %81 = load i32, i32* %4, align 4
  %82 = sext i32 %81 to i64
  %83 = getelementptr inbounds [20 x i8], [20 x i8]* %8, i64 0, i64 %82
  store i8 %80, i8* %83, align 1
  %84 = load i32, i32* %5, align 4
  %85 = add nsw i32 %84, 1
  store i32 %85, i32* %5, align 4
  br label %86

86:                                               ; preds = %76
  %87 = load i32, i32* %4, align 4
  %88 = add nsw i32 %87, 1
  store i32 %88, i32* %4, align 4
  br label %69

89:                                               ; preds = %69
  store i32 0, i32* %5, align 4
  %90 = load i32, i32* %6, align 4
  %91 = load i32, i32* %3, align 4
  %92 = add nsw i32 %90, %91
  %93 = add nsw i32 %92, 1
  store i32 %93, i32* %4, align 4
  br label %94

94:                                               ; preds = %110, %89
  %95 = load i32, i32* %4, align 4
  %96 = load i32, i32* %2, align 4
  %97 = load i32, i32* %3, align 4
  %98 = add nsw i32 %96, %97
  %99 = icmp slt i32 %95, %98
  br i1 %99, label %100, label %113

100:                                              ; preds = %94
  %101 = load i32, i32* %5, align 4
  %102 = sext i32 %101 to i64
  %103 = getelementptr inbounds [20 x i8], [20 x i8]* %10, i64 0, i64 %102
  %104 = load i8, i8* %103, align 1
  %105 = load i32, i32* %4, align 4
  %106 = sext i32 %105 to i64
  %107 = getelementptr inbounds [20 x i8], [20 x i8]* %8, i64 0, i64 %106
  store i8 %104, i8* %107, align 1
  %108 = load i32, i32* %5, align 4
  %109 = add nsw i32 %108, 1
  store i32 %109, i32* %5, align 4
  br label %110

110:                                              ; preds = %100
  %111 = load i32, i32* %4, align 4
  %112 = add nsw i32 %111, 1
  store i32 %112, i32* %4, align 4
  br label %94

113:                                              ; preds = %94
  store i32 0, i32* %4, align 4
  br label %114

114:                                              ; preds = %128, %113
  %115 = load i32, i32* %4, align 4
  %116 = load i32, i32* %2, align 4
  %117 = load i32, i32* %3, align 4
  %118 = add nsw i32 %116, %117
  %119 = sub nsw i32 %118, 1
  %120 = icmp slt i32 %115, %119
  br i1 %120, label %121, label %131

121:                                              ; preds = %114
  %122 = load i32, i32* %4, align 4
  %123 = sext i32 %122 to i64
  %124 = getelementptr inbounds [20 x i8], [20 x i8]* %8, i64 0, i64 %123
  %125 = load i8, i8* %124, align 1
  %126 = sext i8 %125 to i32
  %127 = call i32 (i8*, ...) @printf(i8* getelementptr inbounds ([3 x i8], [3 x i8]* @.str.1, i64 0, i64 0), i32 %126)
  br label %128

128:                                              ; preds = %121
  %129 = load i32, i32* %4, align 4
  %130 = add nsw i32 %129, 1
  store i32 %130, i32* %4, align 4
  br label %114

131:                                              ; preds = %114
  %132 = load i32, i32* %2, align 4
  %133 = load i32, i32* %3, align 4
  %134 = add nsw i32 %132, %133
  %135 = sub nsw i32 %134, 1
  %136 = sext i32 %135 to i64
  %137 = getelementptr inbounds [20 x i8], [20 x i8]* %8, i64 0, i64 %136
  %138 = load i8, i8* %137, align 1
  %139 = sext i8 %138 to i32
  %140 = call i32 (i8*, ...) @printf(i8* getelementptr inbounds ([4 x i8], [4 x i8]* @.str.2, i64 0, i64 0), i32 %139)
  br label %11

141:                                              ; preds = %11
  ret i32 0
}

declare dso_local i32 @__isoc99_scanf(i8*, ...) #1

; Function Attrs: nounwind readonly
declare dso_local i64 @strlen(i8*) #2

declare dso_local i32 @printf(i8*, ...) #1


!llvm.module.flags = !{!0}
!llvm.ident = !{!1}

!0 = !{i32 1, !"wchar_size", i32 4}
!1 = !{!"clang version 10.0.0-4ubuntu1 "}
